target datalayout = "e-m:e-p270:32:32-p271:32:32-p272:64:64-i64:64-i128:128-f80:128-n8:16:32:64-S128"
target triple = "x86_64-pc-linux-gnu"

@.str = private unnamed_addr constant [101 x i8] c"generated/home/dtcxzyw/WorkSpace/Projects/compilers/llvm-opt-benchmark/bench/hdf5/hdf5/src/H5Ftest.c\00", align 1
@__func__.H5F__get_sohm_mesg_count_test = private unnamed_addr constant [30 x i8] c"H5F__get_sohm_mesg_count_test\00", align 1
@H5E_ARGS_g = external global i64, align 8
@H5E_BADTYPE_g = external global i64, align 8
@.str.1 = private unnamed_addr constant [11 x i8] c"not a file\00", align 1
@H5E_FILE_g = external global i64, align 8
@H5E_CANTSET_g = external global i64, align 8
@.str.2 = private unnamed_addr constant [22 x i8] c"can't set API context\00", align 1
@H5E_CANTGET_g = external global i64, align 8
@.str.3 = private unnamed_addr constant [36 x i8] c"can't retrieve shared message count\00", align 1
@H5E_CANTRESET_g = external global i64, align 8
@.str.4 = private unnamed_addr constant [24 x i8] c"can't reset API context\00", align 1

; Function Attrs: nounwind uwtable
define i32 @H5F__get_sohm_mesg_count_test(i64 noundef %0, i32 noundef %1, ptr noundef %2) #0 {
  %4 = alloca i64, align 8
  %5 = alloca i32, align 4
  %6 = alloca ptr, align 8
  %7 = alloca ptr, align 8
  %8 = alloca i8, align 1
  %9 = alloca i32, align 4
  %10 = alloca i8, align 1
  store i64 %0, ptr %4, align 8
  store i32 %1, ptr %5, align 4
  store ptr %2, ptr %6, align 8
  store i8 0, ptr %8, align 1
  store i32 0, ptr %9, align 4
  store i8 0, ptr %10, align 1
  %11 = load i64, ptr %4, align 8
  %12 = call ptr @H5VL_object_verify(i64 noundef %11, i32 noundef 1)
  store ptr %12, ptr %7, align 8
  %13 = icmp eq ptr null, %12
  br i1 %13, label %14, label %29

14:                                               ; preds = %3
  br label %15

15:                                               ; preds = %14
  br label %16

16:                                               ; preds = %15
  br label %17

17:                                               ; preds = %16
  %18 = load i64, ptr @H5E_ARGS_g, align 8
  %19 = load i64, ptr @H5E_BADTYPE_g, align 8
  %20 = call i32 (ptr, ptr, i32, i64, i64, ptr, ...) @H5E_printf_stack(ptr noundef @.str, ptr noundef @__func__.H5F__get_sohm_mesg_count_test, i32 noundef 93, i64 noundef %18, i64 noundef %19, ptr noundef @.str.1)
  br label %21

21:                                               ; preds = %17
  store i8 1, ptr %10, align 1
  %22 = load i8, ptr %10, align 1
  %23 = trunc i8 %22 to i1
  %24 = zext i1 %23 to i8
  store i8 %24, ptr %10, align 1
  br label %25

25:                                               ; preds = %21
  br label %26

26:                                               ; preds = %25
  store i32 -1, ptr %9, align 4
  br label %69

27:                                               ; No predecessors!
  br label %28

28:                                               ; preds = %27
  br label %29

29:                                               ; preds = %28, %3
  %30 = call i32 @H5CX_push()
  %31 = icmp slt i32 %30, 0
  br i1 %31, label %32, label %47

32:                                               ; preds = %29
  br label %33

33:                                               ; preds = %32
  br label %34

34:                                               ; preds = %33
  br label %35

35:                                               ; preds = %34
  %36 = load i64, ptr @H5E_FILE_g, align 8
  %37 = load i64, ptr @H5E_CANTSET_g, align 8
  %38 = call i32 (ptr, ptr, i32, i64, i64, ptr, ...) @H5E_printf_stack(ptr noundef @.str, ptr noundef @__func__.H5F__get_sohm_mesg_count_test, i32 noundef 97, i64 noundef %36, i64 noundef %37, ptr noundef @.str.2)
  br label %39

39:                                               ; preds = %35
  store i8 1, ptr %10, align 1
  %40 = load i8, ptr %10, align 1
  %41 = trunc i8 %40 to i1
  %42 = zext i1 %41 to i8
  store i8 %42, ptr %10, align 1
  br label %43

43:                                               ; preds = %39
  br label %44

44:                                               ; preds = %43
  store i32 -1, ptr %9, align 4
  br label %69

45:                                               ; No predecessors!
  br label %46

46:                                               ; preds = %45
  br label %47

47:                                               ; preds = %46, %29
  store i8 1, ptr %8, align 1
  %48 = load ptr, ptr %7, align 8
  %49 = load i32, ptr %5, align 4
  %50 = load ptr, ptr %6, align 8
  %51 = call i32 @H5SM__get_mesg_count_test(ptr noundef %48, i32 noundef %49, ptr noundef %50)
  %52 = icmp slt i32 %51, 0
  br i1 %52, label %53, label %68

53:                                               ; preds = %47
  br label %54

54:                                               ; preds = %53
  br label %55

55:                                               ; preds = %54
  br label %56

56:                                               ; preds = %55
  %57 = load i64, ptr @H5E_FILE_g, align 8
  %58 = load i64, ptr @H5E_CANTGET_g, align 8
  %59 = call i32 (ptr, ptr, i32, i64, i64, ptr, ...) @H5E_printf_stack(ptr noundef @.str, ptr noundef @__func__.H5F__get_sohm_mesg_count_test, i32 noundef 102, i64 noundef %57, i64 noundef %58, ptr noundef @.str.3)
  br label %60

60:                                               ; preds = %56
  store i8 1, ptr %10, align 1
  %61 = load i8, ptr %10, align 1
  %62 = trunc i8 %61 to i1
  %63 = zext i1 %62 to i8
  store i8 %63, ptr %10, align 1
  br label %64

64:                                               ; preds = %60
  br label %65

65:                                               ; preds = %64
  store i32 -1, ptr %9, align 4
  br label %69

66:                                               ; No predecessors!
  br label %67

67:                                               ; preds = %66
  br label %68

68:                                               ; preds = %67, %47
  br label %69

69:                                               ; preds = %68, %65, %44, %26
  %70 = load i8, ptr %8, align 1
  %71 = trunc i8 %70 to i1
  br i1 %71, label %72, label %88

72:                                               ; preds = %69
  %73 = call i32 @H5CX_pop(i1 noundef zeroext false)
  %74 = icmp slt i32 %73, 0
  br i1 %74, label %75, label %88

75:                                               ; preds = %72
  br label %76

76:                                               ; preds = %75
  br label %77

77:                                               ; preds = %76
  br label %78

78:                                               ; preds = %77
  %79 = load i64, ptr @H5E_FILE_g, align 8
  %80 = load i64, ptr @H5E_CANTRESET_g, align 8
  %81 = call i32 (ptr, ptr, i32, i64, i64, ptr, ...) @H5E_printf_stack(ptr noundef @.str, ptr noundef @__func__.H5F__get_sohm_mesg_count_test, i32 noundef 106, i64 noundef %79, i64 noundef %80, ptr noundef @.str.4)
  br label %82

82:                                               ; preds = %78
  store i8 1, ptr %10, align 1
  %83 = load i8, ptr %10, align 1
  %84 = trunc i8 %83 to i1
  %85 = zext i1 %84 to i8
  store i8 %85, ptr %10, align 1
  br label %86

86:                                               ; preds = %82
  store i32 -1, ptr %9, align 4
  br label %87

87:                                               ; preds = %86
  br label %88

88:                                               ; preds = %87, %72, %69
  %89 = load i32, ptr %9, align 4
  ret i32 %89
}