; Function Attrs: nounwind uwtable
define range(i32 -1, 1) i32 @H5F__get_sohm_mesg_count_test(i64 noundef %0, i32 noundef %1, ptr noundef %2) local_unnamed_addr #0 {
  %4 = tail call ptr @H5VL_object_verify(i64 noundef %0, i32 noundef 1) #2
  %5 = icmp eq ptr %4, null
  br i1 %5, label %6, label %10

6:                                                ; preds = %3
  %7 = load i64, ptr @H5E_ARGS_g, align 8
  %8 = load i64, ptr @H5E_BADTYPE_g, align 8
  %9 = tail call i32 (ptr, ptr, i32, i64, i64, ptr, ...) @H5E_printf_stack(ptr noundef nonnull @.str, ptr noundef nonnull @__func__.H5F__get_sohm_mesg_count_test, i32 noundef 93, i64 noundef %7, i64 noundef %8, ptr noundef nonnull @.str.1) #2
  br label %31

10:                                               ; preds = %3
  %11 = tail call i32 @H5CX_push() #2
  %12 = icmp slt i32 %11, 0
  br i1 %12, label %13, label %17

13:                                               ; preds = %10
  %14 = load i64, ptr @H5E_FILE_g, align 8
  %15 = load i64, ptr @H5E_CANTSET_g, align 8
  %16 = tail call i32 (ptr, ptr, i32, i64, i64, ptr, ...) @H5E_printf_stack(ptr noundef nonnull @.str, ptr noundef nonnull @__func__.H5F__get_sohm_mesg_count_test, i32 noundef 97, i64 noundef %14, i64 noundef %15, ptr noundef nonnull @.str.2) #2
  br label %31

17:                                               ; preds = %10
  %18 = tail call i32 @H5SM__get_mesg_count_test(ptr noundef nonnull %4, i32 noundef %1, ptr noundef %2) #2
  %19 = icmp slt i32 %18, 0
  br i1 %19, label %20, label %24

20:                                               ; preds = %17
  %21 = load i64, ptr @H5E_FILE_g, align 8
  %22 = load i64, ptr @H5E_CANTGET_g, align 8
  %23 = tail call i32 (ptr, ptr, i32, i64, i64, ptr, ...) @H5E_printf_stack(ptr noundef nonnull @.str, ptr noundef nonnull @__func__.H5F__get_sohm_mesg_count_test, i32 noundef 102, i64 noundef %21, i64 noundef %22, ptr noundef nonnull @.str.3) #2
  br label %24

24:                                               ; preds = %20, %17
  %.0.ph = phi i32 [ 0, %17 ], [ -1, %20 ]
  %25 = tail call i32 @H5CX_pop(i1 noundef zeroext false) #2
  %26 = icmp slt i32 %25, 0
  br i1 %26, label %27, label %31

27:                                               ; preds = %24
  %28 = load i64, ptr @H5E_FILE_g, align 8
  %29 = load i64, ptr @H5E_CANTRESET_g, align 8
  %30 = tail call i32 (ptr, ptr, i32, i64, i64, ptr, ...) @H5E_printf_stack(ptr noundef nonnull @.str, ptr noundef nonnull @__func__.H5F__get_sohm_mesg_count_test, i32 noundef 106, i64 noundef %28, i64 noundef %29, ptr noundef nonnull @.str.4) #2
  br label %31

31:                                               ; preds = %6, %13, %27, %24
  %.1 = phi i32 [ -1, %27 ], [ %.0.ph, %24 ], [ -1, %6 ], [ -1, %13 ]
  ret i32 %.1
}